; Function Attrs: mustprogress nofree norecurse nosync nounwind willreturn memory(write, argmem: readwrite, inaccessiblemem: none) uwtable
define void @fstReaderClrFacProcessMaskAll(ptr noundef readonly captures(address_is_null) %0) local_unnamed_addr #27 {
  %.not = icmp eq ptr %0, null
  br i1 %.not, label %10, label %2

2:                                                ; preds = %1
  %3 = getelementptr inbounds nuw i8, ptr %0, i64 96
  %4 = load ptr, ptr %3, align 8, !tbaa !136
  %5 = getelementptr inbounds nuw i8, ptr %0, i64 56
  %6 = load i32, ptr %5, align 8, !tbaa !135
  %7 = add i32 %6, 7
  %8 = lshr i32 %7, 3
  %9 = zext nneg i32 %8 to i64
  tail call void @llvm.memset.p0.i64(ptr align 1 %4, i8 0, i64 %9, i1 false)
  br label %10

10:                                               ; preds = %2, %1
  ret void
}